; ModuleID = 'bench/proj/original/main.ll'
source_filename = "bench/proj/original/main.ll"
target datalayout = "e-m:e-p270:32:32-p271:32:32-p272:64:64-i64:64-i128:128-f80:128-n8:16:32:64-S128"
target triple = "x86_64-pc-linux-gnu"

%"class.std::ios_base::Init" = type { i8 }

@_ZStL8__ioinit = internal global %"class.std::ios_base::Init" zeroinitializer, align 1
@__dso_handle = external hidden global i8
@.str = private unnamed_addr constant [1 x i8] zeroinitializer, align 1
@llvm.global_ctors = appending global [1 x { i32, ptr, ptr }] [{ i32, ptr, ptr } { i32 65535, ptr @_GLOBAL__sub_I_main.cpp, ptr null }]

declare void @_ZNSt8ios_base4InitC1Ev(ptr noundef nonnull align 1 dereferenceable(1)) unnamed_addr #0

; Function Attrs: nounwind
declare void @_ZNSt8ios_base4InitD1Ev(ptr noundef nonnull align 1 dereferenceable(1)) unnamed_addr #1

; Function Attrs: nofree nounwind
declare i32 @__cxa_atexit(ptr, ptr, ptr) local_unnamed_addr #2

; Function Attrs: mustprogress norecurse uwtable
define dso_local noundef i32 @main(i32 noundef %0, ptr noundef %1) local_unnamed_addr #3 {
  %3 = alloca i32, align 4
  store i32 %0, ptr %3, align 4, !tbaa !4
  %4 = tail call ptr @setlocale(i32 noundef 6, ptr noundef nonnull @.str) #5
  call void @_ZN7testing14InitGoogleTestEPiPPc(ptr noundef nonnull %3, ptr noundef %1)
  %5 = call noundef ptr @_ZN7testing8UnitTest11GetInstanceEv()
  %6 = call noundef i32 @_ZN7testing8UnitTest3RunEv(ptr noundef nonnull align 8 dereferenceable(72) %5)
  ret i32 %6
}

; Function Attrs: nounwind
declare ptr @setlocale(i32 noundef, ptr noundef) local_unnamed_addr #1

declare void @_ZN7testing14InitGoogleTestEPiPPc(ptr noundef, ptr noundef) local_unnamed_addr #0

declare noundef ptr @_ZN7testing8UnitTest11GetInstanceEv() local_unnamed_addr #0

declare noundef i32 @_ZN7testing8UnitTest3RunEv(ptr noundef nonnull align 8 dereferenceable(72)) local_unnamed_addr #0

; Function Attrs: uwtable
define internal void @_GLOBAL__sub_I_main.cpp() #4 section ".text.startup" {
  tail call void @_ZNSt8ios_base4InitC1Ev(ptr noundef nonnull align 1 dereferenceable(1) @_ZStL8__ioinit)
  %1 = tail call i32 @__cxa_atexit(ptr nonnull @_ZNSt8ios_base4InitD1Ev, ptr nonnull @_ZStL8__ioinit, ptr nonnull @__dso_handle) #5
  ret void
}


!llvm.module.flags = !{!0, !1, !2, !3}

!0 = !{i32 1, !"wchar_size", i32 4}
!1 = !{i32 8, !"PIC Level", i32 2}
!2 = !{i32 7, !"PIE Level", i32 2}
!3 = !{i32 7, !"uwtable", i32 2}
!4 = !{!5, !5, i64 0}
!5 = !{!"int", !6, i64 0}
!6 = !{!"omnipotent char", !7, i64 0}
!7 = !{!"Simple C++ TBAA"}
